target datalayout = "e-m:e-p270:32:32-p271:32:32-p272:64:64-i64:64-i128:128-f80:128-n8:16:32:64-S128"
target triple = "x86_64-pc-linux-gnu"

%class.anon = type <{ ptr, ptr, i8, [7 x i8] }>
%"struct.Luau::BlockedType" = type { i32, ptr }

; Function Attrs: inlinehint mustprogress uwtable
define internal noundef ptr @"_ZZN4LuauL12shallowCloneEPKNS_4TypeERNS_9TypeArenaEPKNS_6TxnLogEbENK3$_0clIRKNS_11BlockedTypeEEEDaOT_"(ptr noundef nonnull align 8 dereferenceable(17) %0, ptr noundef nonnull align 8 dereferenceable(16) %1) #8 align 2 {
  %3 = alloca ptr, align 8
  %4 = alloca ptr, align 8
  %5 = alloca %"struct.Luau::BlockedType", align 8
  store ptr %0, ptr %3, align 8, !tbaa !438
  store ptr %1, ptr %4, align 8, !tbaa !689
  %6 = load ptr, ptr %3, align 8
  %7 = getelementptr inbounds nuw %class.anon, ptr %6, i32 0, i32 1
  %8 = load ptr, ptr %7, align 8, !tbaa !446
  %9 = load ptr, ptr %4, align 8, !tbaa !689
  call void @llvm.memcpy.p0.p0.i64(ptr align 8 %5, ptr align 8 %9, i64 16, i1 false), !tbaa.struct !453
  %10 = getelementptr inbounds nuw { i32, ptr }, ptr %5, i32 0, i32 0
  %11 = load i32, ptr %10, align 8
  %12 = getelementptr inbounds nuw { i32, ptr }, ptr %5, i32 0, i32 1
  %13 = load ptr, ptr %12, align 8
  %14 = call noundef ptr @_ZN4Luau9TypeArena7addTypeINS_11BlockedTypeEEEPKNS_4TypeET_(ptr noundef nonnull align 8 dereferenceable(88) %8, i32 %11, ptr %13)
  ret ptr %14
}

; Function Attrs: mustprogress uwtable
define internal void @"_ZN4LuauL8fnVisitRIRZNS_L12shallowCloneEPKNS_4TypeERNS_9TypeArenaEPKNS_6TxnLogEbE3$_0S3_KNS_11BlockedTypeEEEvRT_RT0_PNSt11conditionalIXsr3stdE10is_const_vIT1_EEKvvE4typeE"(ptr noundef nonnull align 8 dereferenceable(17) %0, ptr noundef nonnull align 8 dereferenceable(8) %1, ptr noundef %2) #3 {
  %4 = alloca ptr, align 8
  %5 = alloca ptr, align 8
  %6 = alloca ptr, align 8
  store ptr %0, ptr %4, align 8, !tbaa !438
  store ptr %1, ptr %5, align 8, !tbaa !73
  store ptr %2, ptr %6, align 8, !tbaa !438
  %7 = load ptr, ptr %4, align 8, !tbaa !438
  %8 = load ptr, ptr %6, align 8, !tbaa !438
  %9 = call noundef ptr @"_ZZN4LuauL12shallowCloneEPKNS_4TypeERNS_9TypeArenaEPKNS_6TxnLogEbENK3$_0clIRKNS_11BlockedTypeEEEDaOT_"(ptr noundef nonnull align 8 dereferenceable(17) %7, ptr noundef nonnull align 8 dereferenceable(16) %8)
  %10 = load ptr, ptr %5, align 8, !tbaa !73
  store ptr %9, ptr %10, align 8, !tbaa !26
  ret void
}