; Function Attrs: mustprogress uwtable
define internal void @"_ZN4LuauL8fnVisitRIRZNS_L12shallowCloneEPKNS_4TypeERNS_9TypeArenaEPKNS_6TxnLogEbE3$_0S3_KNS_11BlockedTypeEEEvRT_RT0_PNSt11conditionalIXsr3stdE10is_const_vIT1_EEKvvE4typeE"(ptr noundef nonnull readonly align 8 captures(none) dereferenceable(17) %0, ptr noundef nonnull writeonly align 8 captures(none) dereferenceable(8) initializes((0, 8)) %1, ptr noundef readonly captures(none) %2) #2 {
  %4 = getelementptr inbounds nuw i8, ptr %0, i64 8
  %.val = load ptr, ptr %4, align 8, !tbaa !248
  %.val3 = load i32, ptr %2, align 8, !tbaa !4
  %5 = getelementptr i8, ptr %2, i64 8
  %.val4 = load ptr, ptr %5, align 8, !tbaa !263
  %6 = tail call noundef ptr @_ZN4Luau9TypeArena7addTypeINS_11BlockedTypeEEEPKNS_4TypeET_(ptr noundef nonnull align 8 dereferenceable(88) %.val, i32 %.val3, ptr %.val4)
  store ptr %6, ptr %1, align 8, !tbaa !24
  ret void
}